target datalayout = "e-m:e-p270:32:32-p271:32:32-p272:64:64-i64:64-i128:128-f80:128-n8:16:32:64-S128"
target triple = "x86_64-pc-linux-gnu"

%struct.Vec_Int_t_ = type { i32, i32, ptr }

@.str.30 = private unnamed_addr constant [39 x i8] c"Converting miter into AIG has failed.\0A\00", align 1

; Function Attrs: nounwind uwtable
define internal void @Vec_IntFree(ptr noundef %0) #0 {
  %2 = alloca ptr, align 8
  store ptr %0, ptr %2, align 8
  %3 = load ptr, ptr %2, align 8
  %4 = getelementptr inbounds %struct.Vec_Int_t_, ptr %3, i32 0, i32 2
  %5 = load ptr, ptr %4, align 8
  %6 = icmp ne ptr %5, null
  br i1 %6, label %7, label %13

7:                                                ; preds = %1
  %8 = load ptr, ptr %2, align 8
  %9 = getelementptr inbounds %struct.Vec_Int_t_, ptr %8, i32 0, i32 2
  %10 = load ptr, ptr %9, align 8
  call void @free(ptr noundef %10) #10
  %11 = load ptr, ptr %2, align 8
  %12 = getelementptr inbounds %struct.Vec_Int_t_, ptr %11, i32 0, i32 2
  store ptr null, ptr %12, align 8
  br label %14

13:                                               ; preds = %1
  br label %14

14:                                               ; preds = %13, %7
  %15 = load ptr, ptr %2, align 8
  %16 = icmp ne ptr %15, null
  br i1 %16, label %17, label %19

17:                                               ; preds = %14
  %18 = load ptr, ptr %2, align 8
  call void @free(ptr noundef %18) #10
  store ptr null, ptr %2, align 8
  br label %20

19:                                               ; preds = %14
  br label %20

20:                                               ; preds = %19, %17
  ret void
}

; Function Attrs: nounwind uwtable
define ptr @Abc_NtkDarMatch(ptr noundef %0, ptr noundef %1, i32 noundef %2, i32 noundef %3) #0 {
  %5 = alloca ptr, align 8
  %6 = alloca ptr, align 8
  %7 = alloca ptr, align 8
  %8 = alloca i32, align 4
  %9 = alloca i32, align 4
  %10 = alloca ptr, align 8
  %11 = alloca ptr, align 8
  %12 = alloca ptr, align 8
  %13 = alloca ptr, align 8
  %14 = alloca ptr, align 8
  store ptr %0, ptr %6, align 8
  store ptr %1, ptr %7, align 8
  store i32 %2, ptr %8, align 4
  store i32 %3, ptr %9, align 4
  store ptr null, ptr %12, align 8
  %15 = load ptr, ptr %6, align 8
  %16 = call ptr @Abc_NtkToDar(ptr noundef %15, i32 noundef 0, i32 noundef 1)
  store ptr %16, ptr %11, align 8
  %17 = load ptr, ptr %11, align 8
  %18 = icmp eq ptr %17, null
  br i1 %18, label %19, label %20

19:                                               ; preds = %4
  call void (i32, ptr, ...) @Abc_Print(i32 noundef 1, ptr noundef @.str.30)
  store ptr null, ptr %5, align 8
  br label %54

20:                                               ; preds = %4
  %21 = load ptr, ptr %7, align 8
  %22 = icmp ne ptr %21, null
  br i1 %22, label %23, label %30

23:                                               ; preds = %20
  %24 = load ptr, ptr %7, align 8
  %25 = call ptr @Abc_NtkToDar(ptr noundef %24, i32 noundef 0, i32 noundef 1)
  store ptr %25, ptr %12, align 8
  %26 = load ptr, ptr %12, align 8
  %27 = icmp eq ptr %26, null
  br i1 %27, label %28, label %29

28:                                               ; preds = %23
  call void (i32, ptr, ...) @Abc_Print(i32 noundef 1, ptr noundef @.str.30)
  store ptr null, ptr %5, align 8
  br label %54

29:                                               ; preds = %23
  br label %30

30:                                               ; preds = %29, %20
  %31 = load ptr, ptr %11, align 8
  %32 = load ptr, ptr %12, align 8
  %33 = load i32, ptr %8, align 4
  %34 = call ptr @Saig_StrSimPerformMatching(ptr noundef %31, ptr noundef %32, i32 noundef %33, i32 noundef 1, ptr noundef %13)
  store ptr %34, ptr %14, align 8
  %35 = load ptr, ptr %13, align 8
  %36 = call ptr @Abc_NtkFromAigPhase(ptr noundef %35)
  store ptr %36, ptr %10, align 8
  %37 = load ptr, ptr %14, align 8
  %38 = icmp ne ptr %37, null
  br i1 %38, label %39, label %41

39:                                               ; preds = %30
  %40 = load ptr, ptr %14, align 8
  call void @Vec_IntFree(ptr noundef %40)
  br label %41

41:                                               ; preds = %39, %30
  %42 = load ptr, ptr %13, align 8
  %43 = icmp ne ptr %42, null
  br i1 %43, label %44, label %46

44:                                               ; preds = %41
  %45 = load ptr, ptr %13, align 8
  call void @Aig_ManStop(ptr noundef %45)
  br label %46

46:                                               ; preds = %44, %41
  %47 = load ptr, ptr %11, align 8
  call void @Aig_ManStop(ptr noundef %47)
  %48 = load ptr, ptr %12, align 8
  %49 = icmp ne ptr %48, null
  br i1 %49, label %50, label %52

50:                                               ; preds = %46
  %51 = load ptr, ptr %12, align 8
  call void @Aig_ManStop(ptr noundef %51)
  br label %52

52:                                               ; preds = %50, %46
  %53 = load ptr, ptr %10, align 8
  store ptr %53, ptr %5, align 8
  br label %54

54:                                               ; preds = %52, %28, %19
  %55 = load ptr, ptr %5, align 8
  ret ptr %55
}