; Function Attrs: nounwind uwtable
define noundef ptr @Abc_NtkDarMatch(ptr noundef %0, ptr noundef %1, i32 noundef %2, i32 noundef %3) local_unnamed_addr #1 {
  %5 = alloca ptr, align 8
  %6 = tail call ptr @Abc_NtkToDar(ptr noundef %0, i32 noundef 0, i32 noundef 1)
  %7 = icmp eq ptr %6, null
  br i1 %7, label %8, label %9

8:                                                ; preds = %4
  tail call void (i32, ptr, ...) @Abc_Print(i32 poison, ptr noundef nonnull @.str.30)
  br label %27

9:                                                ; preds = %4
  %.not = icmp eq ptr %1, null
  br i1 %.not, label %14, label %10

10:                                               ; preds = %9
  %11 = tail call ptr @Abc_NtkToDar(ptr noundef nonnull %1, i32 noundef 0, i32 noundef 1)
  %12 = icmp eq ptr %11, null
  br i1 %12, label %13, label %14

13:                                               ; preds = %10
  tail call void (i32, ptr, ...) @Abc_Print(i32 poison, ptr noundef nonnull @.str.30)
  br label %27

14:                                               ; preds = %10, %9
  %.014 = phi ptr [ %11, %10 ], [ null, %9 ]
  %15 = call ptr @Saig_StrSimPerformMatching(ptr noundef nonnull %6, ptr noundef %.014, i32 noundef %2, i32 noundef 1, ptr noundef nonnull %5) #19
  %16 = load ptr, ptr %5, align 8
  %17 = call ptr @Abc_NtkFromAigPhase(ptr noundef %16)
  %.not20 = icmp eq ptr %15, null
  br i1 %.not20, label %22, label %18

18:                                               ; preds = %14
  %19 = getelementptr inbounds nuw i8, ptr %15, i64 8
  %20 = load ptr, ptr %19, align 8
  %.not.i = icmp eq ptr %20, null
  br i1 %.not.i, label %Vec_IntFree.exit, label %21

21:                                               ; preds = %18
  call void @free(ptr noundef nonnull %20) #19
  br label %Vec_IntFree.exit

Vec_IntFree.exit:                                 ; preds = %18, %21
  call void @free(ptr noundef nonnull %15) #19
  br label %22

22:                                               ; preds = %Vec_IntFree.exit, %14
  %23 = load ptr, ptr %5, align 8
  %.not21 = icmp eq ptr %23, null
  br i1 %.not21, label %25, label %24

24:                                               ; preds = %22
  call void @Aig_ManStop(ptr noundef nonnull %23) #19
  br label %25

25:                                               ; preds = %24, %22
  call void @Aig_ManStop(ptr noundef nonnull %6) #19
  %.not22 = icmp eq ptr %.014, null
  br i1 %.not22, label %27, label %26

26:                                               ; preds = %25
  call void @Aig_ManStop(ptr noundef nonnull %.014) #19
  br label %27

27:                                               ; preds = %25, %26, %13, %8
  %.0 = phi ptr [ null, %8 ], [ null, %13 ], [ %17, %26 ], [ %17, %25 ]
  ret ptr %.0
}